target datalayout = "e-m:e-p270:32:32-p271:32:32-p272:64:64-i64:64-i128:128-f80:128-n8:16:32:64-S128"
target triple = "x86_64-pc-linux-gnu"

%"class.icu_77::(anonymous namespace)::MutableCodePointTrie" = type { ptr, i32, i32, ptr, i32, i32, i32, i32, i32, i32, i32, i32, ptr, [69632 x i8] }

; Function Attrs: mustprogress nounwind uwtable
define internal noundef i32 @_ZNK6icu_7712_GLOBAL__N_120MutableCodePointTrie3getEi(ptr noundef nonnull align 8 dereferenceable(69696) %0, i32 noundef %1) #4 align 2 {
  %3 = alloca i32, align 4
  %4 = alloca ptr, align 8
  %5 = alloca i32, align 4
  %6 = alloca i32, align 4
  %7 = alloca i32, align 4
  store ptr %0, ptr %4, align 8, !tbaa !11
  store i32 %1, ptr %5, align 4, !tbaa !3
  %8 = load ptr, ptr %4, align 8
  %9 = load i32, ptr %5, align 4, !tbaa !3
  %10 = icmp ugt i32 %9, 1114111
  br i1 %10, label %11, label %14

11:                                               ; preds = %2
  %12 = getelementptr inbounds nuw %"class.icu_77::(anonymous namespace)::MutableCodePointTrie", ptr %8, i32 0, i32 9
  %13 = load i32, ptr %12, align 4, !tbaa !25
  store i32 %13, ptr %3, align 4
  br label %55

14:                                               ; preds = %2
  %15 = load i32, ptr %5, align 4, !tbaa !3
  %16 = getelementptr inbounds nuw %"class.icu_77::(anonymous namespace)::MutableCodePointTrie", ptr %8, i32 0, i32 10
  %17 = load i32, ptr %16, align 8, !tbaa !26
  %18 = icmp sge i32 %15, %17
  br i1 %18, label %19, label %22

19:                                               ; preds = %14
  %20 = getelementptr inbounds nuw %"class.icu_77::(anonymous namespace)::MutableCodePointTrie", ptr %8, i32 0, i32 11
  %21 = load i32, ptr %20, align 4, !tbaa !27
  store i32 %21, ptr %3, align 4
  br label %55

22:                                               ; preds = %14
  call void @llvm.lifetime.start.p0(i64 4, ptr %6) #11
  %23 = load i32, ptr %5, align 4, !tbaa !3
  %24 = ashr i32 %23, 4
  store i32 %24, ptr %6, align 4, !tbaa !3
  %25 = getelementptr inbounds nuw %"class.icu_77::(anonymous namespace)::MutableCodePointTrie", ptr %8, i32 0, i32 13
  %26 = load i32, ptr %6, align 4, !tbaa !3
  %27 = sext i32 %26 to i64
  %28 = getelementptr inbounds [69632 x i8], ptr %25, i64 0, i64 %27
  %29 = load i8, ptr %28, align 1, !tbaa !46
  %30 = zext i8 %29 to i32
  %31 = icmp eq i32 %30, 0
  br i1 %31, label %32, label %39

32:                                               ; preds = %22
  %33 = getelementptr inbounds nuw %"class.icu_77::(anonymous namespace)::MutableCodePointTrie", ptr %8, i32 0, i32 0
  %34 = load ptr, ptr %33, align 8, !tbaa !13
  %35 = load i32, ptr %6, align 4, !tbaa !3
  %36 = sext i32 %35 to i64
  %37 = getelementptr inbounds i32, ptr %34, i64 %36
  %38 = load i32, ptr %37, align 4, !tbaa !3
  store i32 %38, ptr %3, align 4
  store i32 1, ptr %7, align 4
  br label %54

39:                                               ; preds = %22
  %40 = getelementptr inbounds nuw %"class.icu_77::(anonymous namespace)::MutableCodePointTrie", ptr %8, i32 0, i32 3
  %41 = load ptr, ptr %40, align 8, !tbaa !19
  %42 = getelementptr inbounds nuw %"class.icu_77::(anonymous namespace)::MutableCodePointTrie", ptr %8, i32 0, i32 0
  %43 = load ptr, ptr %42, align 8, !tbaa !13
  %44 = load i32, ptr %6, align 4, !tbaa !3
  %45 = sext i32 %44 to i64
  %46 = getelementptr inbounds i32, ptr %43, i64 %45
  %47 = load i32, ptr %46, align 4, !tbaa !3
  %48 = load i32, ptr %5, align 4, !tbaa !3
  %49 = and i32 %48, 15
  %50 = add i32 %47, %49
  %51 = zext i32 %50 to i64
  %52 = getelementptr inbounds nuw i32, ptr %41, i64 %51
  %53 = load i32, ptr %52, align 4, !tbaa !3
  store i32 %53, ptr %3, align 4
  store i32 1, ptr %7, align 4
  br label %54

54:                                               ; preds = %39, %32
  call void @llvm.lifetime.end.p0(i64 4, ptr %6) #11
  br label %55

55:                                               ; preds = %54, %19, %11
  %56 = load i32, ptr %3, align 4
  ret i32 %56
}

; Function Attrs: mustprogress uwtable
define i32 @umutablecptrie_get_77(ptr noundef %0, i32 noundef %1) #0 {
  %3 = alloca ptr, align 8
  %4 = alloca i32, align 4
  store ptr %0, ptr %3, align 8, !tbaa !35
  store i32 %1, ptr %4, align 4, !tbaa !3
  %5 = load ptr, ptr %3, align 8, !tbaa !35
  %6 = load i32, ptr %4, align 4, !tbaa !3
  %7 = call noundef i32 @_ZNK6icu_7712_GLOBAL__N_120MutableCodePointTrie3getEi(ptr noundef nonnull align 8 dereferenceable(69696) %5, i32 noundef %6)
  ret i32 %7
}