; Function Attrs: mustprogress nofree norecurse nosync nounwind willreturn memory(read, inaccessiblemem: none) uwtable
define i32 @umutablecptrie_get_77(ptr noundef readonly captures(none) %0, i32 noundef %1) local_unnamed_addr #4 {
  %3 = icmp ugt i32 %1, 1114111
  br i1 %3, label %4, label %6

4:                                                ; preds = %2
  %5 = getelementptr inbounds nuw i8, ptr %0, i64 44
  br label %_ZNK6icu_7712_GLOBAL__N_120MutableCodePointTrie3getEi.exit

6:                                                ; preds = %2
  %7 = getelementptr inbounds nuw i8, ptr %0, i64 48
  %8 = load i32, ptr %7, align 8, !tbaa !19
  %.not.i = icmp slt i32 %1, %8
  br i1 %.not.i, label %11, label %9

9:                                                ; preds = %6
  %10 = getelementptr inbounds nuw i8, ptr %0, i64 52
  br label %_ZNK6icu_7712_GLOBAL__N_120MutableCodePointTrie3getEi.exit

11:                                               ; preds = %6
  %12 = lshr i32 %1, 4
  %13 = getelementptr inbounds nuw i8, ptr %0, i64 64
  %14 = zext nneg i32 %12 to i64
  %15 = getelementptr inbounds nuw [69632 x i8], ptr %13, i64 0, i64 %14
  %16 = load i8, ptr %15, align 1, !tbaa !31
  %17 = icmp eq i8 %16, 0
  br i1 %17, label %18, label %21

18:                                               ; preds = %11
  %19 = load ptr, ptr %0, align 8, !tbaa !7
  %20 = getelementptr inbounds nuw i32, ptr %19, i64 %14
  br label %_ZNK6icu_7712_GLOBAL__N_120MutableCodePointTrie3getEi.exit

21:                                               ; preds = %11
  %22 = getelementptr inbounds nuw i8, ptr %0, i64 16
  %23 = load ptr, ptr %22, align 8, !tbaa !22
  %24 = load ptr, ptr %0, align 8, !tbaa !7
  %25 = getelementptr inbounds nuw i32, ptr %24, i64 %14
  %26 = load i32, ptr %25, align 4, !tbaa !25
  %27 = and i32 %1, 15
  %28 = add i32 %26, %27
  %29 = zext i32 %28 to i64
  %30 = getelementptr inbounds nuw i32, ptr %23, i64 %29
  br label %_ZNK6icu_7712_GLOBAL__N_120MutableCodePointTrie3getEi.exit

_ZNK6icu_7712_GLOBAL__N_120MutableCodePointTrie3getEi.exit: ; preds = %4, %9, %18, %21
  %.0.in.i = phi ptr [ %5, %4 ], [ %10, %9 ], [ %20, %18 ], [ %30, %21 ]
  %.0.i = load i32, ptr %.0.in.i, align 4, !tbaa !25
  ret i32 %.0.i
}